target datalayout = "e-m:e-p270:32:32-p271:32:32-p272:64:64-i64:64-i128:128-f80:128-n8:16:32:64-S128"
target triple = "x86_64-unknown-linux-gnu"

%"class.icu_75::Locale" = type <{ %"class.icu_75::UObject", [12 x i8], [6 x i8], [4 x i8], [2 x i8], i32, [4 x i8], ptr, [157 x i8], [3 x i8], ptr, i8, [7 x i8] }>
%"class.icu_75::UObject" = type { ptr }

; Function Attrs: mustprogress uwtable
define void @_ZN6icu_756Locale10setToBogusEv(ptr noundef nonnull align 8 dereferenceable(217) %this) #1 align 2 {
entry:
  %this.addr = alloca ptr, align 8
  store ptr %this, ptr %this.addr, align 8
  %this1 = load ptr, ptr %this.addr, align 8
  %baseName = getelementptr inbounds %"class.icu_75::Locale", ptr %this1, i32 0, i32 10
  %0 = load ptr, ptr %baseName, align 8
  %fullName = getelementptr inbounds %"class.icu_75::Locale", ptr %this1, i32 0, i32 7
  %1 = load ptr, ptr %fullName, align 8
  %cmp = icmp ne ptr %0, %1
  br i1 %cmp, label %land.lhs.true, label %if.end

land.lhs.true:                                    ; preds = %entry
  %baseName2 = getelementptr inbounds %"class.icu_75::Locale", ptr %this1, i32 0, i32 10
  %2 = load ptr, ptr %baseName2, align 8
  %fullNameBuffer = getelementptr inbounds %"class.icu_75::Locale", ptr %this1, i32 0, i32 8
  %arraydecay = getelementptr inbounds [157 x i8], ptr %fullNameBuffer, i64 0, i64 0
  %cmp3 = icmp ne ptr %2, %arraydecay
  br i1 %cmp3, label %if.then, label %if.end

if.then:                                          ; preds = %land.lhs.true
  %baseName4 = getelementptr inbounds %"class.icu_75::Locale", ptr %this1, i32 0, i32 10
  %3 = load ptr, ptr %baseName4, align 8
  call void @uprv_free_75(ptr noundef %3)
  br label %if.end

if.end:                                           ; preds = %if.then, %land.lhs.true, %entry
  %baseName5 = getelementptr inbounds %"class.icu_75::Locale", ptr %this1, i32 0, i32 10
  store ptr null, ptr %baseName5, align 8
  %fullName6 = getelementptr inbounds %"class.icu_75::Locale", ptr %this1, i32 0, i32 7
  %4 = load ptr, ptr %fullName6, align 8
  %fullNameBuffer7 = getelementptr inbounds %"class.icu_75::Locale", ptr %this1, i32 0, i32 8
  %arraydecay8 = getelementptr inbounds [157 x i8], ptr %fullNameBuffer7, i64 0, i64 0
  %cmp9 = icmp ne ptr %4, %arraydecay8
  br i1 %cmp9, label %if.then10, label %if.end15

if.then10:                                        ; preds = %if.end
  %fullName11 = getelementptr inbounds %"class.icu_75::Locale", ptr %this1, i32 0, i32 7
  %5 = load ptr, ptr %fullName11, align 8
  call void @uprv_free_75(ptr noundef %5)
  %fullNameBuffer12 = getelementptr inbounds %"class.icu_75::Locale", ptr %this1, i32 0, i32 8
  %arraydecay13 = getelementptr inbounds [157 x i8], ptr %fullNameBuffer12, i64 0, i64 0
  %fullName14 = getelementptr inbounds %"class.icu_75::Locale", ptr %this1, i32 0, i32 7
  store ptr %arraydecay13, ptr %fullName14, align 8
  br label %if.end15

if.end15:                                         ; preds = %if.then10, %if.end
  %fullNameBuffer16 = getelementptr inbounds %"class.icu_75::Locale", ptr %this1, i32 0, i32 8
  %arraydecay17 = getelementptr inbounds [157 x i8], ptr %fullNameBuffer16, i64 0, i64 0
  store i8 0, ptr %arraydecay17, align 8
  %language = getelementptr inbounds %"class.icu_75::Locale", ptr %this1, i32 0, i32 1
  %arraydecay18 = getelementptr inbounds [12 x i8], ptr %language, i64 0, i64 0
  store i8 0, ptr %arraydecay18, align 8
  %script = getelementptr inbounds %"class.icu_75::Locale", ptr %this1, i32 0, i32 2
  %arraydecay19 = getelementptr inbounds [6 x i8], ptr %script, i64 0, i64 0
  store i8 0, ptr %arraydecay19, align 4
  %country = getelementptr inbounds %"class.icu_75::Locale", ptr %this1, i32 0, i32 3
  %arraydecay20 = getelementptr inbounds [4 x i8], ptr %country, i64 0, i64 0
  store i8 0, ptr %arraydecay20, align 2
  %fIsBogus = getelementptr inbounds %"class.icu_75::Locale", ptr %this1, i32 0, i32 11
  store i8 1, ptr %fIsBogus, align 8
  %variantBegin = getelementptr inbounds %"class.icu_75::Locale", ptr %this1, i32 0, i32 5
  store i32 0, ptr %variantBegin, align 8
  ret void
}