; Function Attrs: mustprogress uwtable
define void @_ZN6icu_756Locale10setToBogusEv(ptr noundef nonnull align 8 dereferenceable(217) %this) local_unnamed_addr #1 align 2 {
entry:
  %baseName = getelementptr inbounds i8, ptr %this, i64 208
  %0 = load ptr, ptr %baseName, align 8
  %fullName = getelementptr inbounds i8, ptr %this, i64 40
  %1 = load ptr, ptr %fullName, align 8
  %cmp.not = icmp eq ptr %0, %1
  %fullNameBuffer = getelementptr inbounds i8, ptr %this, i64 48
  %cmp3.not = icmp eq ptr %0, %fullNameBuffer
  %or.cond = select i1 %cmp.not, i1 true, i1 %cmp3.not
  br i1 %or.cond, label %if.end, label %if.then

if.then:                                          ; preds = %entry
  tail call void @uprv_free_75(ptr noundef %0)
  %.pre = load ptr, ptr %fullName, align 8
  br label %if.end

if.end:                                           ; preds = %if.then, %entry
  %2 = phi ptr [ %.pre, %if.then ], [ %1, %entry ]
  store ptr null, ptr %baseName, align 8
  %cmp9.not = icmp eq ptr %2, %fullNameBuffer
  br i1 %cmp9.not, label %if.end15, label %if.then10

if.then10:                                        ; preds = %if.end
  tail call void @uprv_free_75(ptr noundef %2)
  store ptr %fullNameBuffer, ptr %fullName, align 8
  br label %if.end15

if.end15:                                         ; preds = %if.then10, %if.end
  store i8 0, ptr %fullNameBuffer, align 8
  %language = getelementptr inbounds i8, ptr %this, i64 8
  store i8 0, ptr %language, align 8
  %script = getelementptr inbounds i8, ptr %this, i64 20
  store i8 0, ptr %script, align 4
  %country = getelementptr inbounds i8, ptr %this, i64 26
  store i8 0, ptr %country, align 2
  %fIsBogus = getelementptr inbounds i8, ptr %this, i64 216
  store i8 1, ptr %fIsBogus, align 8
  %variantBegin = getelementptr inbounds i8, ptr %this, i64 32
  store i32 0, ptr %variantBegin, align 8
  ret void
}